target datalayout = "e-m:e-p270:32:32-p271:32:32-p272:64:64-i64:64-i128:128-f80:128-n8:16:32:64-S128"
target triple = "x86_64-pc-linux-gnu"

%class.outputStream = type { ptr, i32, i8, i32, i64, %class.TimeStamp, ptr, i64 }
%class.TimeStamp = type { i64 }
%class.stringStream = type <{ %class.outputStream, ptr, i64, i64, i8, [48 x i8], [7 x i8] }>

; Function Attrs: mustprogress nounwind uwtable
define hidden void @_ZN12stringStream14zero_terminateEv(ptr noundef nonnull align 8 dereferenceable(129) %0) #1 align 2 {
  %2 = alloca ptr, align 8
  store ptr %0, ptr %2, align 8
  %3 = load ptr, ptr %2, align 8
  %4 = getelementptr inbounds %class.stringStream, ptr %3, i32 0, i32 1
  %5 = load ptr, ptr %4, align 8
  %6 = getelementptr inbounds %class.stringStream, ptr %3, i32 0, i32 2
  %7 = load i64, ptr %6, align 8
  %8 = getelementptr inbounds i8, ptr %5, i64 %7
  store i8 0, ptr %8, align 1
  ret void
}

; Function Attrs: mustprogress nounwind uwtable
define hidden void @_ZN12stringStream5resetEv(ptr noundef nonnull align 8 dereferenceable(129) %0) #1 align 2 {
  %2 = alloca ptr, align 8
  store ptr %0, ptr %2, align 8
  %3 = load ptr, ptr %2, align 8
  %4 = getelementptr inbounds %class.stringStream, ptr %3, i32 0, i32 2
  store i64 0, ptr %4, align 8
  %5 = getelementptr inbounds %class.outputStream, ptr %3, i32 0, i32 4
  store i64 0, ptr %5, align 8
  %6 = getelementptr inbounds %class.outputStream, ptr %3, i32 0, i32 3
  store i32 0, ptr %6, align 8
  call void @_ZN12stringStream14zero_terminateEv(ptr noundef nonnull align 8 dereferenceable(129) %3)
  ret void
}