; Function Attrs: mustprogress nofree norecurse nosync nounwind willreturn memory(write, argmem: readwrite, inaccessiblemem: none) uwtable
define hidden void @_ZN12stringStream5resetEv(ptr nocapture noundef nonnull align 8 dereferenceable(129) %0) local_unnamed_addr #7 align 2 {
  %2 = getelementptr inbounds i8, ptr %0, i64 64
  store i64 0, ptr %2, align 8
  %3 = getelementptr inbounds i8, ptr %0, i64 24
  store i64 0, ptr %3, align 8
  %4 = getelementptr inbounds i8, ptr %0, i64 16
  store i32 0, ptr %4, align 8
  %5 = getelementptr inbounds i8, ptr %0, i64 56
  %6 = load ptr, ptr %5, align 8
  store i8 0, ptr %6, align 1
  ret void
}